target datalayout = "e-m:e-p270:32:32-p271:32:32-p272:64:64-i64:64-i128:128-f80:128-n8:16:32:64-S128"
target triple = "x86_64-pc-linux-gnu"

%struct._zval_struct = type { %union._zend_value, %union.anon, %union.anon.2 }
%union._zend_value = type { i64 }
%union.anon = type { i32 }
%union.anon.2 = type { i32 }
%struct._zend_array = type { %struct._zend_refcounted_h, %union.anon.4, i32, %union.anon.6, i32, i32, i32, i32, i64, ptr }
%struct._zend_refcounted_h = type { i32, %union.anon.3 }
%union.anon.3 = type { i32 }
%union.anon.4 = type { i32 }
%union.anon.6 = type { ptr }
%struct._zend_class_entry = type { i8, ptr, %union.anon.8, i32, i32, i32, i32, ptr, ptr, ptr, %struct._zend_array, %struct._zend_array, %struct._zend_array, ptr, ptr, ptr, ptr, ptr, ptr, ptr, ptr, ptr, ptr, ptr, ptr, ptr, ptr, ptr, ptr, ptr, ptr, ptr, %union.anon.9, ptr, ptr, ptr, ptr, i32, i32, i32, i32, %union.anon.10, ptr, ptr, ptr, ptr, i32, ptr, ptr, %union.anon.11 }
%union.anon.8 = type { ptr }
%union.anon.9 = type { ptr }
%union.anon.10 = type { ptr }
%union.anon.11 = type { %struct.anon.12 }
%struct.anon.12 = type { ptr, i32, i32 }
%struct._zend_module_entry = type { i16, i32, i8, i8, ptr, ptr, ptr, ptr, ptr, ptr, ptr, ptr, ptr, ptr, i64, ptr, ptr, ptr, ptr, i32, i8, ptr, i32, ptr }
%struct.anon.13 = type { ptr, ptr }

; Function Attrs: nounwind uwtable
define internal i32 @clean_module_class(ptr noundef %0, ptr noundef %1) #0 {
  %3 = alloca i32, align 4
  %4 = alloca ptr, align 8
  %5 = alloca ptr, align 8
  %6 = alloca ptr, align 8
  %7 = alloca i32, align 4
  %8 = alloca i32, align 4
  store ptr %0, ptr %4, align 8, !tbaa !8
  store ptr %1, ptr %5, align 8, !tbaa !102
  call void @llvm.lifetime.start.p0(i64 8, ptr %6) #21
  %9 = load ptr, ptr %4, align 8, !tbaa !8
  %10 = getelementptr inbounds nuw %struct._zval_struct, ptr %9, i32 0, i32 0
  %11 = load ptr, ptr %10, align 8, !tbaa !44
  store ptr %11, ptr %6, align 8, !tbaa !66
  call void @llvm.lifetime.start.p0(i64 4, ptr %7) #21
  %12 = load ptr, ptr %5, align 8, !tbaa !102
  %13 = load i32, ptr %12, align 4, !tbaa !4
  store i32 %13, ptr %7, align 4, !tbaa !4
  %14 = load ptr, ptr %6, align 8, !tbaa !66
  %15 = getelementptr inbounds nuw %struct._zend_class_entry, ptr %14, i32 0, i32 0
  %16 = load i8, ptr %15, align 8, !tbaa !69
  %17 = sext i8 %16 to i32
  %18 = icmp eq i32 %17, 1
  br i1 %18, label %19, label %29

19:                                               ; preds = %2
  %20 = load ptr, ptr %6, align 8, !tbaa !66
  %21 = getelementptr inbounds nuw %struct._zend_class_entry, ptr %20, i32 0, i32 49
  %22 = getelementptr inbounds nuw %struct.anon.13, ptr %21, i32 0, i32 1
  %23 = load ptr, ptr %22, align 8, !tbaa !44
  %24 = getelementptr inbounds nuw %struct._zend_module_entry, ptr %23, i32 0, i32 22
  %25 = load i32, ptr %24, align 8, !tbaa !191
  %26 = load i32, ptr %7, align 4, !tbaa !4
  %27 = icmp eq i32 %25, %26
  br i1 %27, label %28, label %29

28:                                               ; preds = %19
  store i32 1, ptr %3, align 4
  store i32 1, ptr %8, align 4
  br label %30

29:                                               ; preds = %19, %2
  store i32 0, ptr %3, align 4
  store i32 1, ptr %8, align 4
  br label %30

30:                                               ; preds = %29, %28
  call void @llvm.lifetime.end.p0(i64 4, ptr %7) #21
  call void @llvm.lifetime.end.p0(i64 8, ptr %6) #21
  %31 = load i32, ptr %3, align 4
  ret i32 %31
}