; Function Attrs: mustprogress nofree norecurse nosync nounwind willreturn memory(read, inaccessiblemem: none) uwtable
define internal range(i32 0, 2) i32 @clean_module_class(ptr noundef readonly captures(none) %0, ptr noundef readonly captures(none) %1) #4 {
  %3 = load ptr, ptr %0, align 8, !tbaa !42
  %4 = load i8, ptr %3, align 8, !tbaa !66
  %5 = icmp eq i8 %4, 1
  br i1 %5, label %6, label %13

6:                                                ; preds = %2
  %7 = load i32, ptr %1, align 4, !tbaa !121
  %8 = getelementptr inbounds nuw i8, ptr %3, i64 512
  %9 = load ptr, ptr %8, align 8, !tbaa !42
  %10 = getelementptr inbounds nuw i8, ptr %9, i64 152
  %11 = load i32, ptr %10, align 8, !tbaa !196
  %12 = icmp eq i32 %11, %7
  br i1 %12, label %14, label %13

13:                                               ; preds = %6, %2
  br label %14

14:                                               ; preds = %6, %13
  %.0 = phi i32 [ 0, %13 ], [ 1, %6 ]
  ret i32 %.0
}